; Function Attrs: null_pointer_is_valid sspstrong uwtable
define internal noundef i32 @add_string_param(ptr noundef %0, i32 noundef %1, i32 %2, ptr readnone captures(none) %3, ptr noundef %4, i32 %5, i32 noundef %6, ptr readnone captures(none) %7) #0 {
  %9 = tail call i32 @tvb_strsize(ptr noundef %0, i32 noundef %1)
  %10 = icmp sgt i32 %6, 0
  %11 = load i32, ptr @hf_smb_pipe_string_param, align 4
  %.sink = select i1 %10, i32 %6, i32 %11
  %12 = tail call ptr @proto_tree_add_item(ptr noundef %4, i32 noundef %.sink, ptr noundef %0, i32 noundef %1, i32 noundef %9, i32 noundef 0)
  %13 = add i32 %9, %1
  ret i32 %13
}